
Template.elf:     file format elf32-avr

Sections:
Idx Name          Size      VMA       LMA       File off  Algn
  0 .data         00000020  00800100  00000d26  00000dba  2**0
                  CONTENTS, ALLOC, LOAD, DATA
  1 .text         00000d26  00000000  00000000  00000094  2**1
                  CONTENTS, ALLOC, LOAD, READONLY, CODE
  2 .bss          000000fa  00800120  00800120  00000dda  2**0
                  ALLOC
  3 .comment      00000011  00000000  00000000  00000dda  2**0
                  CONTENTS, READONLY
  4 .note.gnu.avr.deviceinfo 00000040  00000000  00000000  00000dec  2**2
                  CONTENTS, READONLY
  5 .debug_info   000005f4  00000000  00000000  00000e2c  2**0
                  CONTENTS, READONLY, DEBUGGING
  6 .debug_abbrev 000005a2  00000000  00000000  00001420  2**0
                  CONTENTS, READONLY, DEBUGGING
  7 .debug_line   0000001a  00000000  00000000  000019c2  2**0
                  CONTENTS, READONLY, DEBUGGING
  8 .debug_str    00000208  00000000  00000000  000019dc  2**0
                  CONTENTS, READONLY, DEBUGGING

Disassembly of section .text:

00000000 <__vectors>:
   0:	63 c0       	rjmp	.+198    	; 0xc8 <__dtors_end>
   2:	00 00       	nop
   4:	86 c0       	rjmp	.+268    	; 0x112 <__bad_interrupt>
   6:	00 00       	nop
   8:	f1 c1       	rjmp	.+994    	; 0x3ec <__vector_2>
   a:	00 00       	nop
   c:	18 c2       	rjmp	.+1072   	; 0x43e <__vector_3>
   e:	00 00       	nop
  10:	80 c0       	rjmp	.+256    	; 0x112 <__bad_interrupt>
  12:	00 00       	nop
  14:	7e c0       	rjmp	.+252    	; 0x112 <__bad_interrupt>
  16:	00 00       	nop
  18:	7c c0       	rjmp	.+248    	; 0x112 <__bad_interrupt>
  1a:	00 00       	nop
  1c:	7a c0       	rjmp	.+244    	; 0x112 <__bad_interrupt>
  1e:	00 00       	nop
  20:	78 c0       	rjmp	.+240    	; 0x112 <__bad_interrupt>
  22:	00 00       	nop
  24:	76 c0       	rjmp	.+236    	; 0x112 <__bad_interrupt>
  26:	00 00       	nop
  28:	74 c0       	rjmp	.+232    	; 0x112 <__bad_interrupt>
  2a:	00 00       	nop
  2c:	72 c0       	rjmp	.+228    	; 0x112 <__bad_interrupt>
  2e:	00 00       	nop
  30:	70 c0       	rjmp	.+224    	; 0x112 <__bad_interrupt>
  32:	00 00       	nop
  34:	6e c0       	rjmp	.+220    	; 0x112 <__bad_interrupt>
  36:	00 00       	nop
  38:	6c c0       	rjmp	.+216    	; 0x112 <__bad_interrupt>
  3a:	00 00       	nop
  3c:	6a c0       	rjmp	.+212    	; 0x112 <__bad_interrupt>
  3e:	00 00       	nop
  40:	e1 c4       	rjmp	.+2498   	; 0xa04 <__vector_16>
  42:	00 00       	nop
  44:	66 c0       	rjmp	.+204    	; 0x112 <__bad_interrupt>
  46:	00 00       	nop
  48:	fa c2       	rjmp	.+1524   	; 0x63e <__vector_18>
  4a:	00 00       	nop
  4c:	62 c0       	rjmp	.+196    	; 0x112 <__bad_interrupt>
  4e:	00 00       	nop
  50:	60 c0       	rjmp	.+192    	; 0x112 <__bad_interrupt>
  52:	00 00       	nop
  54:	5e c0       	rjmp	.+188    	; 0x112 <__bad_interrupt>
  56:	00 00       	nop
  58:	5c c0       	rjmp	.+184    	; 0x112 <__bad_interrupt>
  5a:	00 00       	nop
  5c:	5a c0       	rjmp	.+180    	; 0x112 <__bad_interrupt>
  5e:	00 00       	nop
  60:	58 c0       	rjmp	.+176    	; 0x112 <__bad_interrupt>
  62:	00 00       	nop
  64:	56 c0       	rjmp	.+172    	; 0x112 <__bad_interrupt>
	...

00000068 <__trampolines_end>:
  68:	00 00       	nop
  6a:	00 07       	cpc	r16, r16
  6c:	00 02       	muls	r16, r16
  6e:	01 00       	.word	0x0001	; ????
  70:	00 03       	mulsu	r16, r16
  72:	04 06       	cpc	r0, r20
	...

0000007c <digital_pin_to_bit_mask_PGM>:
  7c:	01 02 04 08 10 20 40 80 01 02 04 08 10 20 01 02     ..... @...... ..
  8c:	04 08 10 20                                         ... 

00000090 <digital_pin_to_port_PGM>:
  90:	04 04 04 04 04 04 04 04 02 02 02 02 02 02 03 03     ................
  a0:	03 03 03 03                                         ....

000000a4 <port_to_input_PGM>:
  a4:	00 00 00 00 23 00 26 00 29 00                       ....#.&.).

000000ae <port_to_output_PGM>:
  ae:	00 00 00 00 25 00 28 00 2b 00                       ....%.(.+.

000000b8 <port_to_mode_PGM>:
  b8:	00 00 00 00 24 00 27 00 2a 00                       ....$.'.*.

000000c2 <__ctors_start>:
  c2:	ff 00       	.word	0x00ff	; ????
  c4:	a9 03       	fmulsu	r18, r17

000000c6 <__ctors_end>:
  c6:	05 01       	movw	r0, r10

000000c8 <__dtors_end>:
  c8:	11 24       	eor	r1, r1
  ca:	1f be       	out	0x3f, r1	; 63
  cc:	cf ef       	ldi	r28, 0xFF	; 255
  ce:	d8 e0       	ldi	r29, 0x08	; 8
  d0:	de bf       	out	0x3e, r29	; 62
  d2:	cd bf       	out	0x3d, r28	; 61

000000d4 <__do_copy_data>:
  d4:	11 e0       	ldi	r17, 0x01	; 1
  d6:	a0 e0       	ldi	r26, 0x00	; 0
  d8:	b1 e0       	ldi	r27, 0x01	; 1
  da:	e6 e2       	ldi	r30, 0x26	; 38
  dc:	fd e0       	ldi	r31, 0x0D	; 13
  de:	02 c0       	rjmp	.+4      	; 0xe4 <__do_copy_data+0x10>
  e0:	05 90       	lpm	r0, Z+
  e2:	0d 92       	st	X+, r0
  e4:	a0 32       	cpi	r26, 0x20	; 32
  e6:	b1 07       	cpc	r27, r17
  e8:	d9 f7       	brne	.-10     	; 0xe0 <__do_copy_data+0xc>

000000ea <__do_clear_bss>:
  ea:	22 e0       	ldi	r18, 0x02	; 2
  ec:	a0 e2       	ldi	r26, 0x20	; 32
  ee:	b1 e0       	ldi	r27, 0x01	; 1
  f0:	01 c0       	rjmp	.+2      	; 0xf4 <.do_clear_bss_start>

000000f2 <.do_clear_bss_loop>:
  f2:	1d 92       	st	X+, r1

000000f4 <.do_clear_bss_start>:
  f4:	aa 31       	cpi	r26, 0x1A	; 26
  f6:	b2 07       	cpc	r27, r18
  f8:	e1 f7       	brne	.-8      	; 0xf2 <.do_clear_bss_loop>

000000fa <__do_global_ctors>:
  fa:	10 e0       	ldi	r17, 0x00	; 0
  fc:	c3 e6       	ldi	r28, 0x63	; 99
  fe:	d0 e0       	ldi	r29, 0x00	; 0
 100:	03 c0       	rjmp	.+6      	; 0x108 <__do_global_ctors+0xe>
 102:	21 97       	sbiw	r28, 0x01	; 1
 104:	fe 01       	movw	r30, r28
 106:	e7 d5       	rcall	.+3022   	; 0xcd6 <__tablejump2__>
 108:	c1 36       	cpi	r28, 0x61	; 97
 10a:	d1 07       	cpc	r29, r17
 10c:	d1 f7       	brne	.-12     	; 0x102 <__do_global_ctors+0x8>
 10e:	74 d0       	rcall	.+232    	; 0x1f8 <main>
 110:	fe c5       	rjmp	.+3068   	; 0xd0e <__do_global_dtors>

00000112 <__bad_interrupt>:
 112:	76 cf       	rjmp	.-276    	; 0x0 <__vectors>

00000114 <_Z11eepromWritev>:
 114:	cf 93       	push	r28
 116:	df 93       	push	r29
 118:	d0 e0       	ldi	r29, 0x00	; 0
 11a:	c0 e0       	ldi	r28, 0x00	; 0
 11c:	4a ea       	ldi	r20, 0xAA	; 170
 11e:	be 01       	movw	r22, r28
 120:	89 e7       	ldi	r24, 0x79	; 121
 122:	91 e0       	ldi	r25, 0x01	; 1
 124:	1b d2       	rcall	.+1078   	; 0x55c <_ZN11EEPROMClass5writeEih>
 126:	21 96       	adiw	r28, 0x01	; 1
 128:	c1 15       	cp	r28, r1
 12a:	82 e0       	ldi	r24, 0x02	; 2
 12c:	d8 07       	cpc	r29, r24
 12e:	b1 f7       	brne	.-20     	; 0x11c <_Z11eepromWritev+0x8>
 130:	df 91       	pop	r29
 132:	cf 91       	pop	r28
 134:	08 95       	ret

00000136 <_Z10eepromReadv>:
 136:	cf 93       	push	r28
 138:	df 93       	push	r29
 13a:	c0 e0       	ldi	r28, 0x00	; 0
 13c:	d2 e0       	ldi	r29, 0x02	; 2
 13e:	60 91 33 01 	lds	r22, 0x0133	; 0x800133 <address>
 142:	70 91 34 01 	lds	r23, 0x0134	; 0x800134 <address+0x1>
 146:	89 e7       	ldi	r24, 0x79	; 121
 148:	91 e0       	ldi	r25, 0x01	; 1
 14a:	06 d2       	rcall	.+1036   	; 0x558 <_ZN11EEPROMClass4readEi>
 14c:	80 93 32 01 	sts	0x0132, r24	; 0x800132 <value>
 150:	60 91 33 01 	lds	r22, 0x0133	; 0x800133 <address>
 154:	70 91 34 01 	lds	r23, 0x0134	; 0x800134 <address+0x1>
 158:	4a e0       	ldi	r20, 0x0A	; 10
 15a:	50 e0       	ldi	r21, 0x00	; 0
 15c:	8a e7       	ldi	r24, 0x7A	; 122
 15e:	91 e0       	ldi	r25, 0x01	; 1
 160:	39 d4       	rcall	.+2162   	; 0x9d4 <_ZN5Print5printEii>
 162:	62 e0       	ldi	r22, 0x02	; 2
 164:	71 e0       	ldi	r23, 0x01	; 1
 166:	8a e7       	ldi	r24, 0x7A	; 122
 168:	91 e0       	ldi	r25, 0x01	; 1
 16a:	53 d3       	rcall	.+1702   	; 0x812 <_ZN5Print5printEPKc>
 16c:	4a e0       	ldi	r20, 0x0A	; 10
 16e:	50 e0       	ldi	r21, 0x00	; 0
 170:	60 91 32 01 	lds	r22, 0x0132	; 0x800132 <value>
 174:	8a e7       	ldi	r24, 0x7A	; 122
 176:	91 e0       	ldi	r25, 0x01	; 1
 178:	3f d4       	rcall	.+2174   	; 0x9f8 <_ZN5Print5printEhi>
 17a:	8a e7       	ldi	r24, 0x7A	; 122
 17c:	91 e0       	ldi	r25, 0x01	; 1
 17e:	1c d4       	rcall	.+2104   	; 0x9b8 <_ZN5Print7printlnEv>
 180:	80 91 33 01 	lds	r24, 0x0133	; 0x800133 <address>
 184:	90 91 34 01 	lds	r25, 0x0134	; 0x800134 <address+0x1>
 188:	01 96       	adiw	r24, 0x01	; 1
 18a:	81 15       	cp	r24, r1
 18c:	22 e0       	ldi	r18, 0x02	; 2
 18e:	92 07       	cpc	r25, r18
 190:	71 f0       	breq	.+28     	; 0x1ae <_Z10eepromReadv+0x78>
 192:	90 93 34 01 	sts	0x0134, r25	; 0x800134 <address+0x1>
 196:	80 93 33 01 	sts	0x0133, r24	; 0x800133 <address>
 19a:	64 e6       	ldi	r22, 0x64	; 100
 19c:	70 e0       	ldi	r23, 0x00	; 0
 19e:	80 e0       	ldi	r24, 0x00	; 0
 1a0:	90 e0       	ldi	r25, 0x00	; 0
 1a2:	9f d4       	rcall	.+2366   	; 0xae2 <delay>
 1a4:	21 97       	sbiw	r28, 0x01	; 1
 1a6:	59 f6       	brne	.-106    	; 0x13e <_Z10eepromReadv+0x8>
 1a8:	df 91       	pop	r29
 1aa:	cf 91       	pop	r28
 1ac:	08 95       	ret
 1ae:	10 92 34 01 	sts	0x0134, r1	; 0x800134 <address+0x1>
 1b2:	10 92 33 01 	sts	0x0133, r1	; 0x800133 <address>
 1b6:	f1 cf       	rjmp	.-30     	; 0x19a <_Z10eepromReadv+0x64>

000001b8 <setup>:
 1b8:	61 e0       	ldi	r22, 0x01	; 1
 1ba:	80 91 00 01 	lds	r24, 0x0100	; 0x800100 <__DATA_REGION_ORIGIN__>
 1be:	19 d5       	rcall	.+2610   	; 0xbf2 <pinMode>
 1c0:	40 e8       	ldi	r20, 0x80	; 128
 1c2:	55 e2       	ldi	r21, 0x25	; 37
 1c4:	60 e0       	ldi	r22, 0x00	; 0
 1c6:	70 e0       	ldi	r23, 0x00	; 0
 1c8:	8a e7       	ldi	r24, 0x7A	; 122
 1ca:	91 e0       	ldi	r25, 0x01	; 1
 1cc:	6d d2       	rcall	.+1242   	; 0x6a8 <_ZN14HardwareSerial5beginEl>
 1ce:	a2 df       	rcall	.-188    	; 0x114 <_Z11eepromWritev>
 1d0:	b2 cf       	rjmp	.-156    	; 0x136 <_Z10eepromReadv>

000001d2 <loop>:
 1d2:	61 e0       	ldi	r22, 0x01	; 1
 1d4:	80 91 00 01 	lds	r24, 0x0100	; 0x800100 <__DATA_REGION_ORIGIN__>
 1d8:	2d d5       	rcall	.+2650   	; 0xc34 <digitalWrite>
 1da:	64 e6       	ldi	r22, 0x64	; 100
 1dc:	70 e0       	ldi	r23, 0x00	; 0
 1de:	80 e0       	ldi	r24, 0x00	; 0
 1e0:	90 e0       	ldi	r25, 0x00	; 0
 1e2:	7f d4       	rcall	.+2302   	; 0xae2 <delay>
 1e4:	60 e0       	ldi	r22, 0x00	; 0
 1e6:	80 91 00 01 	lds	r24, 0x0100	; 0x800100 <__DATA_REGION_ORIGIN__>
 1ea:	24 d5       	rcall	.+2632   	; 0xc34 <digitalWrite>
 1ec:	64 e6       	ldi	r22, 0x64	; 100
 1ee:	70 e0       	ldi	r23, 0x00	; 0
 1f0:	80 e0       	ldi	r24, 0x00	; 0
 1f2:	90 e0       	ldi	r25, 0x00	; 0
 1f4:	76 d4       	rcall	.+2284   	; 0xae2 <delay>
 1f6:	ed cf       	rjmp	.-38     	; 0x1d2 <loop>

000001f8 <main>:
 1f8:	98 d4       	rcall	.+2352   	; 0xb2a <init>
 1fa:	de df       	rcall	.-68     	; 0x1b8 <setup>
 1fc:	ea df       	rcall	.-44     	; 0x1d2 <loop>

000001fe <_GLOBAL__sub_I___cxa_pure_virtual>:
 1fe:	20 e0       	ldi	r18, 0x00	; 0
 200:	46 e0       	ldi	r20, 0x06	; 6
 202:	62 e0       	ldi	r22, 0x02	; 2
 204:	80 e2       	ldi	r24, 0x20	; 32
 206:	91 e0       	ldi	r25, 0x01	; 1
 208:	88 c1       	rjmp	.+784    	; 0x51a <_ZN13NewSoftSerialC1Ehhb>

0000020a <_GLOBAL__sub_D___cxa_pure_virtual>:
 20a:	80 e2       	ldi	r24, 0x20	; 32
 20c:	91 e0       	ldi	r25, 0x01	; 1
 20e:	3a c1       	rjmp	.+628    	; 0x484 <_ZN13NewSoftSerialD1Ev>

00000210 <_ZN13NewSoftSerial12tx_pin_writeEh.part.1>:
 210:	dc 01       	movw	r26, r24
 212:	17 96       	adiw	r26, 0x07	; 7
 214:	ed 91       	ld	r30, X+
 216:	fc 91       	ld	r31, X
 218:	18 97       	sbiw	r26, 0x08	; 8
 21a:	90 81       	ld	r25, Z
 21c:	16 96       	adiw	r26, 0x06	; 6
 21e:	8c 91       	ld	r24, X
 220:	80 95       	com	r24
 222:	89 23       	and	r24, r25
 224:	80 83       	st	Z, r24
 226:	08 95       	ret

00000228 <_ZN13NewSoftSerial10tunedDelayEj>:
 228:	20 e0       	ldi	r18, 0x00	; 0
 22a:	01 97       	sbiw	r24, 0x01	; 1
 22c:	2f ef       	ldi	r18, 0xFF	; 255
 22e:	8f 3f       	cpi	r24, 0xFF	; 255
 230:	92 07       	cpc	r25, r18
 232:	d9 f7       	brne	.-10     	; 0x22a <_ZN13NewSoftSerial10tunedDelayEj+0x2>
 234:	08 95       	ret

00000236 <_ZN13NewSoftSerial8activateEv>:
 236:	20 91 77 01 	lds	r18, 0x0177	; 0x800177 <_ZN13NewSoftSerial13active_objectE>
 23a:	30 91 78 01 	lds	r19, 0x0178	; 0x800178 <_ZN13NewSoftSerial13active_objectE+0x1>
 23e:	28 17       	cp	r18, r24
 240:	39 07       	cpc	r19, r25
 242:	89 f0       	breq	.+34     	; 0x266 <_ZN13NewSoftSerial8activateEv+0x30>
 244:	fc 01       	movw	r30, r24
 246:	21 89       	ldd	r18, Z+17	; 0x11
 248:	2e 7f       	andi	r18, 0xFE	; 254
 24a:	21 8b       	std	Z+17, r18	; 0x11
 24c:	2f b7       	in	r18, 0x3f	; 63
 24e:	f8 94       	cli
 250:	10 92 36 01 	sts	0x0136, r1	; 0x800136 <_ZN13NewSoftSerial20_receive_buffer_tailE>
 254:	10 92 35 01 	sts	0x0135, r1	; 0x800135 <_ZN13NewSoftSerial20_receive_buffer_headE>
 258:	90 93 78 01 	sts	0x0178, r25	; 0x800178 <_ZN13NewSoftSerial13active_objectE+0x1>
 25c:	80 93 77 01 	sts	0x0177, r24	; 0x800177 <_ZN13NewSoftSerial13active_objectE>
 260:	2f bf       	out	0x3f, r18	; 63
 262:	81 e0       	ldi	r24, 0x01	; 1
 264:	08 95       	ret
 266:	80 e0       	ldi	r24, 0x00	; 0
 268:	08 95       	ret

0000026a <_ZN13NewSoftSerial4recvEv>:
 26a:	ef 92       	push	r14
 26c:	ff 92       	push	r15
 26e:	0f 93       	push	r16
 270:	1f 93       	push	r17
 272:	cf 93       	push	r28
 274:	df 93       	push	r29
 276:	ec 01       	movw	r28, r24
 278:	ec 81       	ldd	r30, Y+4	; 0x04
 27a:	fd 81       	ldd	r31, Y+5	; 0x05
 27c:	9b 81       	ldd	r25, Y+3	; 0x03
 27e:	89 89       	ldd	r24, Y+17	; 0x11
 280:	81 ff       	sbrs	r24, 1
 282:	0a c0       	rjmp	.+20     	; 0x298 <_ZN13NewSoftSerial4recvEv+0x2e>
 284:	80 81       	ld	r24, Z
 286:	89 23       	and	r24, r25
 288:	51 f4       	brne	.+20     	; 0x29e <_ZN13NewSoftSerial4recvEv+0x34>
 28a:	df 91       	pop	r29
 28c:	cf 91       	pop	r28
 28e:	1f 91       	pop	r17
 290:	0f 91       	pop	r16
 292:	ff 90       	pop	r15
 294:	ef 90       	pop	r14
 296:	08 95       	ret
 298:	80 81       	ld	r24, Z
 29a:	89 23       	and	r24, r25
 29c:	b1 f7       	brne	.-20     	; 0x28a <_ZN13NewSoftSerial4recvEv+0x20>
 29e:	89 85       	ldd	r24, Y+9	; 0x09
 2a0:	9a 85       	ldd	r25, Y+10	; 0x0a
 2a2:	c2 df       	rcall	.-124    	; 0x228 <_ZN13NewSoftSerial10tunedDelayEj>
 2a4:	88 e0       	ldi	r24, 0x08	; 8
 2a6:	e8 2e       	mov	r14, r24
 2a8:	f1 2c       	mov	r15, r1
 2aa:	10 e0       	ldi	r17, 0x00	; 0
 2ac:	01 e0       	ldi	r16, 0x01	; 1
 2ae:	8b 85       	ldd	r24, Y+11	; 0x0b
 2b0:	9c 85       	ldd	r25, Y+12	; 0x0c
 2b2:	ba df       	rcall	.-140    	; 0x228 <_ZN13NewSoftSerial10tunedDelayEj>
 2b4:	ec 81       	ldd	r30, Y+4	; 0x04
 2b6:	fd 81       	ldd	r31, Y+5	; 0x05
 2b8:	80 81       	ld	r24, Z
 2ba:	9b 81       	ldd	r25, Y+3	; 0x03
 2bc:	89 23       	and	r24, r25
 2be:	31 f1       	breq	.+76     	; 0x30c <_ZN13NewSoftSerial4recvEv+0xa2>
 2c0:	10 2b       	or	r17, r16
 2c2:	00 0f       	add	r16, r16
 2c4:	81 e0       	ldi	r24, 0x01	; 1
 2c6:	e8 1a       	sub	r14, r24
 2c8:	f1 08       	sbc	r15, r1
 2ca:	89 f7       	brne	.-30     	; 0x2ae <_ZN13NewSoftSerial4recvEv+0x44>
 2cc:	8d 85       	ldd	r24, Y+13	; 0x0d
 2ce:	9e 85       	ldd	r25, Y+14	; 0x0e
 2d0:	ab df       	rcall	.-170    	; 0x228 <_ZN13NewSoftSerial10tunedDelayEj>
 2d2:	89 89       	ldd	r24, Y+17	; 0x11
 2d4:	81 fd       	sbrc	r24, 1
 2d6:	10 95       	com	r17
 2d8:	80 91 36 01 	lds	r24, 0x0136	; 0x800136 <_ZN13NewSoftSerial20_receive_buffer_tailE>
 2dc:	20 91 35 01 	lds	r18, 0x0135	; 0x800135 <_ZN13NewSoftSerial20_receive_buffer_headE>
 2e0:	90 e0       	ldi	r25, 0x00	; 0
 2e2:	01 96       	adiw	r24, 0x01	; 1
 2e4:	8f 73       	andi	r24, 0x3F	; 63
 2e6:	99 27       	eor	r25, r25
 2e8:	28 17       	cp	r18, r24
 2ea:	19 06       	cpc	r1, r25
 2ec:	99 f0       	breq	.+38     	; 0x314 <_ZN13NewSoftSerial4recvEv+0xaa>
 2ee:	e0 91 36 01 	lds	r30, 0x0136	; 0x800136 <_ZN13NewSoftSerial20_receive_buffer_tailE>
 2f2:	f0 e0       	ldi	r31, 0x00	; 0
 2f4:	e9 5c       	subi	r30, 0xC9	; 201
 2f6:	fe 4f       	sbci	r31, 0xFE	; 254
 2f8:	10 83       	st	Z, r17
 2fa:	80 91 36 01 	lds	r24, 0x0136	; 0x800136 <_ZN13NewSoftSerial20_receive_buffer_tailE>
 2fe:	90 e0       	ldi	r25, 0x00	; 0
 300:	01 96       	adiw	r24, 0x01	; 1
 302:	8f 73       	andi	r24, 0x3F	; 63
 304:	99 27       	eor	r25, r25
 306:	80 93 36 01 	sts	0x0136, r24	; 0x800136 <_ZN13NewSoftSerial20_receive_buffer_tailE>
 30a:	bf cf       	rjmp	.-130    	; 0x28a <_ZN13NewSoftSerial4recvEv+0x20>
 30c:	80 2f       	mov	r24, r16
 30e:	80 95       	com	r24
 310:	18 23       	and	r17, r24
 312:	d7 cf       	rjmp	.-82     	; 0x2c2 <_ZN13NewSoftSerial4recvEv+0x58>
 314:	89 89       	ldd	r24, Y+17	; 0x11
 316:	81 60       	ori	r24, 0x01	; 1
 318:	89 8b       	std	Y+17, r24	; 0x11
 31a:	b7 cf       	rjmp	.-146    	; 0x28a <_ZN13NewSoftSerial4recvEv+0x20>

0000031c <_ZN13NewSoftSerial12tx_pin_writeEh>:
 31c:	fc 01       	movw	r30, r24
 31e:	61 11       	cpse	r22, r1
 320:	01 c0       	rjmp	.+2      	; 0x324 <_ZN13NewSoftSerial12tx_pin_writeEh+0x8>
 322:	76 cf       	rjmp	.-276    	; 0x210 <_ZN13NewSoftSerial12tx_pin_writeEh.part.1>
 324:	a7 81       	ldd	r26, Z+7	; 0x07
 326:	b0 85       	ldd	r27, Z+8	; 0x08
 328:	9c 91       	ld	r25, X
 32a:	86 81       	ldd	r24, Z+6	; 0x06
 32c:	89 2b       	or	r24, r25
 32e:	8c 93       	st	X, r24
 330:	08 95       	ret

00000332 <_ZN13NewSoftSerial5writeEh>:
 332:	df 92       	push	r13
 334:	ef 92       	push	r14
 336:	ff 92       	push	r15
 338:	0f 93       	push	r16
 33a:	1f 93       	push	r17
 33c:	cf 93       	push	r28
 33e:	df 93       	push	r29
 340:	fc 01       	movw	r30, r24
 342:	27 85       	ldd	r18, Z+15	; 0x0f
 344:	30 89       	ldd	r19, Z+16	; 0x10
 346:	23 2b       	or	r18, r19
 348:	09 f4       	brne	.+2      	; 0x34c <_ZN13NewSoftSerial5writeEh+0x1a>
 34a:	48 c0       	rjmp	.+144    	; 0x3dc <_ZN13NewSoftSerial5writeEh+0xaa>
 34c:	16 2f       	mov	r17, r22
 34e:	ec 01       	movw	r28, r24
 350:	72 df       	rcall	.-284    	; 0x236 <_ZN13NewSoftSerial8activateEv>
 352:	df b6       	in	r13, 0x3f	; 63
 354:	f8 94       	cli
 356:	69 89       	ldd	r22, Y+17	; 0x11
 358:	66 95       	lsr	r22
 35a:	61 70       	andi	r22, 0x01	; 1
 35c:	ce 01       	movw	r24, r28
 35e:	de df       	rcall	.-68     	; 0x31c <_ZN13NewSoftSerial12tx_pin_writeEh>
 360:	8f 85       	ldd	r24, Y+15	; 0x0f
 362:	98 89       	ldd	r25, Y+16	; 0x10
 364:	05 96       	adiw	r24, 0x05	; 5
 366:	60 df       	rcall	.-320    	; 0x228 <_ZN13NewSoftSerial10tunedDelayEj>
 368:	89 89       	ldd	r24, Y+17	; 0x11
 36a:	98 e0       	ldi	r25, 0x08	; 8
 36c:	e9 2e       	mov	r14, r25
 36e:	f1 2c       	mov	r15, r1
 370:	01 e0       	ldi	r16, 0x01	; 1
 372:	81 ff       	sbrs	r24, 1
 374:	1e c0       	rjmp	.+60     	; 0x3b2 <_ZN13NewSoftSerial5writeEh+0x80>
 376:	81 2f       	mov	r24, r17
 378:	80 23       	and	r24, r16
 37a:	b9 f0       	breq	.+46     	; 0x3aa <_ZN13NewSoftSerial5writeEh+0x78>
 37c:	ce 01       	movw	r24, r28
 37e:	48 df       	rcall	.-368    	; 0x210 <_ZN13NewSoftSerial12tx_pin_writeEh.part.1>
 380:	8f 85       	ldd	r24, Y+15	; 0x0f
 382:	98 89       	ldd	r25, Y+16	; 0x10
 384:	51 df       	rcall	.-350    	; 0x228 <_ZN13NewSoftSerial10tunedDelayEj>
 386:	00 0f       	add	r16, r16
 388:	f1 e0       	ldi	r31, 0x01	; 1
 38a:	ef 1a       	sub	r14, r31
 38c:	f1 08       	sbc	r15, r1
 38e:	99 f7       	brne	.-26     	; 0x376 <_ZN13NewSoftSerial5writeEh+0x44>
 390:	ce 01       	movw	r24, r28
 392:	3e df       	rcall	.-388    	; 0x210 <_ZN13NewSoftSerial12tx_pin_writeEh.part.1>
 394:	df be       	out	0x3f, r13	; 63
 396:	8f 85       	ldd	r24, Y+15	; 0x0f
 398:	98 89       	ldd	r25, Y+16	; 0x10
 39a:	df 91       	pop	r29
 39c:	cf 91       	pop	r28
 39e:	1f 91       	pop	r17
 3a0:	0f 91       	pop	r16
 3a2:	ff 90       	pop	r15
 3a4:	ef 90       	pop	r14
 3a6:	df 90       	pop	r13
 3a8:	3f cf       	rjmp	.-386    	; 0x228 <_ZN13NewSoftSerial10tunedDelayEj>
 3aa:	61 e0       	ldi	r22, 0x01	; 1
 3ac:	ce 01       	movw	r24, r28
 3ae:	b6 df       	rcall	.-148    	; 0x31c <_ZN13NewSoftSerial12tx_pin_writeEh>
 3b0:	e7 cf       	rjmp	.-50     	; 0x380 <_ZN13NewSoftSerial5writeEh+0x4e>
 3b2:	81 2f       	mov	r24, r17
 3b4:	80 23       	and	r24, r16
 3b6:	79 f0       	breq	.+30     	; 0x3d6 <_ZN13NewSoftSerial5writeEh+0xa4>
 3b8:	61 e0       	ldi	r22, 0x01	; 1
 3ba:	ce 01       	movw	r24, r28
 3bc:	af df       	rcall	.-162    	; 0x31c <_ZN13NewSoftSerial12tx_pin_writeEh>
 3be:	8f 85       	ldd	r24, Y+15	; 0x0f
 3c0:	98 89       	ldd	r25, Y+16	; 0x10
 3c2:	32 df       	rcall	.-412    	; 0x228 <_ZN13NewSoftSerial10tunedDelayEj>
 3c4:	00 0f       	add	r16, r16
 3c6:	81 e0       	ldi	r24, 0x01	; 1
 3c8:	e8 1a       	sub	r14, r24
 3ca:	f1 08       	sbc	r15, r1
 3cc:	91 f7       	brne	.-28     	; 0x3b2 <_ZN13NewSoftSerial5writeEh+0x80>
 3ce:	61 e0       	ldi	r22, 0x01	; 1
 3d0:	ce 01       	movw	r24, r28
 3d2:	a4 df       	rcall	.-184    	; 0x31c <_ZN13NewSoftSerial12tx_pin_writeEh>
 3d4:	df cf       	rjmp	.-66     	; 0x394 <_ZN13NewSoftSerial5writeEh+0x62>
 3d6:	ce 01       	movw	r24, r28
 3d8:	1b df       	rcall	.-458    	; 0x210 <_ZN13NewSoftSerial12tx_pin_writeEh.part.1>
 3da:	f1 cf       	rjmp	.-30     	; 0x3be <_ZN13NewSoftSerial5writeEh+0x8c>
 3dc:	df 91       	pop	r29
 3de:	cf 91       	pop	r28
 3e0:	1f 91       	pop	r17
 3e2:	0f 91       	pop	r16
 3e4:	ff 90       	pop	r15
 3e6:	ef 90       	pop	r14
 3e8:	df 90       	pop	r13
 3ea:	08 95       	ret

000003ec <__vector_2>:
 3ec:	1f 92       	push	r1
 3ee:	0f 92       	push	r0
 3f0:	0f b6       	in	r0, 0x3f	; 63
 3f2:	0f 92       	push	r0
 3f4:	11 24       	eor	r1, r1
 3f6:	2f 93       	push	r18
 3f8:	3f 93       	push	r19
 3fa:	4f 93       	push	r20
 3fc:	5f 93       	push	r21
 3fe:	6f 93       	push	r22
 400:	7f 93       	push	r23
 402:	8f 93       	push	r24
 404:	9f 93       	push	r25
 406:	af 93       	push	r26
 408:	bf 93       	push	r27
 40a:	ef 93       	push	r30
 40c:	ff 93       	push	r31
 40e:	80 91 77 01 	lds	r24, 0x0177	; 0x800177 <_ZN13NewSoftSerial13active_objectE>
 412:	90 91 78 01 	lds	r25, 0x0178	; 0x800178 <_ZN13NewSoftSerial13active_objectE+0x1>
 416:	00 97       	sbiw	r24, 0x00	; 0
 418:	09 f0       	breq	.+2      	; 0x41c <__EEPROM_REGION_LENGTH__+0x1c>
 41a:	27 df       	rcall	.-434    	; 0x26a <_ZN13NewSoftSerial4recvEv>
 41c:	ff 91       	pop	r31
 41e:	ef 91       	pop	r30
 420:	bf 91       	pop	r27
 422:	af 91       	pop	r26
 424:	9f 91       	pop	r25
 426:	8f 91       	pop	r24
 428:	7f 91       	pop	r23
 42a:	6f 91       	pop	r22
 42c:	5f 91       	pop	r21
 42e:	4f 91       	pop	r20
 430:	3f 91       	pop	r19
 432:	2f 91       	pop	r18
 434:	0f 90       	pop	r0
 436:	0f be       	out	0x3f, r0	; 63
 438:	0f 90       	pop	r0
 43a:	1f 90       	pop	r1
 43c:	18 95       	reti

0000043e <__vector_3>:
 43e:	1f 92       	push	r1
 440:	0f 92       	push	r0
 442:	0f b6       	in	r0, 0x3f	; 63
 444:	0f 92       	push	r0
 446:	11 24       	eor	r1, r1
 448:	2f 93       	push	r18
 44a:	3f 93       	push	r19
 44c:	4f 93       	push	r20
 44e:	5f 93       	push	r21
 450:	6f 93       	push	r22
 452:	7f 93       	push	r23
 454:	8f 93       	push	r24
 456:	9f 93       	push	r25
 458:	af 93       	push	r26
 45a:	bf 93       	push	r27
 45c:	ef 93       	push	r30
 45e:	ff 93       	push	r31
 460:	c5 df       	rcall	.-118    	; 0x3ec <__vector_2>
 462:	ff 91       	pop	r31
 464:	ef 91       	pop	r30
 466:	bf 91       	pop	r27
 468:	af 91       	pop	r26
 46a:	9f 91       	pop	r25
 46c:	8f 91       	pop	r24
 46e:	7f 91       	pop	r23
 470:	6f 91       	pop	r22
 472:	5f 91       	pop	r21
 474:	4f 91       	pop	r20
 476:	3f 91       	pop	r19
 478:	2f 91       	pop	r18
 47a:	0f 90       	pop	r0
 47c:	0f be       	out	0x3f, r0	; 63
 47e:	0f 90       	pop	r0
 480:	1f 90       	pop	r1
 482:	18 95       	reti

00000484 <_ZN13NewSoftSerialD1Ev>:
 484:	08 95       	ret

00000486 <_ZN13NewSoftSerial5setTXEh>:
 486:	1f 93       	push	r17
 488:	cf 93       	push	r28
 48a:	df 93       	push	r29
 48c:	ec 01       	movw	r28, r24
 48e:	16 2f       	mov	r17, r22
 490:	61 e0       	ldi	r22, 0x01	; 1
 492:	81 2f       	mov	r24, r17
 494:	ae d3       	rcall	.+1884   	; 0xbf2 <pinMode>
 496:	61 e0       	ldi	r22, 0x01	; 1
 498:	81 2f       	mov	r24, r17
 49a:	cc d3       	rcall	.+1944   	; 0xc34 <digitalWrite>
 49c:	81 2f       	mov	r24, r17
 49e:	90 e0       	ldi	r25, 0x00	; 0
 4a0:	fc 01       	movw	r30, r24
 4a2:	e4 58       	subi	r30, 0x84	; 132
 4a4:	ff 4f       	sbci	r31, 0xFF	; 255
 4a6:	e4 91       	lpm	r30, Z
 4a8:	ee 83       	std	Y+6, r30	; 0x06
 4aa:	fc 01       	movw	r30, r24
 4ac:	e0 57       	subi	r30, 0x70	; 112
 4ae:	ff 4f       	sbci	r31, 0xFF	; 255
 4b0:	e4 91       	lpm	r30, Z
 4b2:	f0 e0       	ldi	r31, 0x00	; 0
 4b4:	ee 0f       	add	r30, r30
 4b6:	ff 1f       	adc	r31, r31
 4b8:	e2 55       	subi	r30, 0x52	; 82
 4ba:	ff 4f       	sbci	r31, 0xFF	; 255
 4bc:	85 91       	lpm	r24, Z+
 4be:	94 91       	lpm	r25, Z
 4c0:	98 87       	std	Y+8, r25	; 0x08
 4c2:	8f 83       	std	Y+7, r24	; 0x07
 4c4:	df 91       	pop	r29
 4c6:	cf 91       	pop	r28
 4c8:	1f 91       	pop	r17
 4ca:	08 95       	ret

000004cc <_ZN13NewSoftSerial5setRXEh>:
 4cc:	1f 93       	push	r17
 4ce:	cf 93       	push	r28
 4d0:	df 93       	push	r29
 4d2:	ec 01       	movw	r28, r24
 4d4:	16 2f       	mov	r17, r22
 4d6:	60 e0       	ldi	r22, 0x00	; 0
 4d8:	81 2f       	mov	r24, r17
 4da:	8b d3       	rcall	.+1814   	; 0xbf2 <pinMode>
 4dc:	89 89       	ldd	r24, Y+17	; 0x11
 4de:	81 fd       	sbrc	r24, 1
 4e0:	03 c0       	rjmp	.+6      	; 0x4e8 <_ZN13NewSoftSerial5setRXEh+0x1c>
 4e2:	61 e0       	ldi	r22, 0x01	; 1
 4e4:	81 2f       	mov	r24, r17
 4e6:	a6 d3       	rcall	.+1868   	; 0xc34 <digitalWrite>
 4e8:	1a 83       	std	Y+2, r17	; 0x02
 4ea:	81 2f       	mov	r24, r17
 4ec:	90 e0       	ldi	r25, 0x00	; 0
 4ee:	fc 01       	movw	r30, r24
 4f0:	e4 58       	subi	r30, 0x84	; 132
 4f2:	ff 4f       	sbci	r31, 0xFF	; 255
 4f4:	e4 91       	lpm	r30, Z
 4f6:	eb 83       	std	Y+3, r30	; 0x03
 4f8:	fc 01       	movw	r30, r24
 4fa:	e0 57       	subi	r30, 0x70	; 112
 4fc:	ff 4f       	sbci	r31, 0xFF	; 255
 4fe:	e4 91       	lpm	r30, Z
 500:	f0 e0       	ldi	r31, 0x00	; 0
 502:	ee 0f       	add	r30, r30
 504:	ff 1f       	adc	r31, r31
 506:	ec 55       	subi	r30, 0x5C	; 92
 508:	ff 4f       	sbci	r31, 0xFF	; 255
 50a:	85 91       	lpm	r24, Z+
 50c:	94 91       	lpm	r25, Z
 50e:	9d 83       	std	Y+5, r25	; 0x05
 510:	8c 83       	std	Y+4, r24	; 0x04
 512:	df 91       	pop	r29
 514:	cf 91       	pop	r28
 516:	1f 91       	pop	r17
 518:	08 95       	ret

0000051a <_ZN13NewSoftSerialC1Ehhb>:
 51a:	1f 93       	push	r17
 51c:	cf 93       	push	r28
 51e:	df 93       	push	r29
 520:	ec 01       	movw	r28, r24
 522:	16 2f       	mov	r17, r22
 524:	88 e0       	ldi	r24, 0x08	; 8
 526:	91 e0       	ldi	r25, 0x01	; 1
 528:	99 83       	std	Y+1, r25	; 0x01
 52a:	88 83       	st	Y, r24
 52c:	1a 86       	std	Y+10, r1	; 0x0a
 52e:	19 86       	std	Y+9, r1	; 0x09
 530:	1c 86       	std	Y+12, r1	; 0x0c
 532:	1b 86       	std	Y+11, r1	; 0x0b
 534:	1e 86       	std	Y+14, r1	; 0x0e
 536:	1d 86       	std	Y+13, r1	; 0x0d
 538:	18 8a       	std	Y+16, r1	; 0x10
 53a:	1f 86       	std	Y+15, r1	; 0x0f
 53c:	89 89       	ldd	r24, Y+17	; 0x11
 53e:	8e 7f       	andi	r24, 0xFE	; 254
 540:	20 fb       	bst	r18, 0
 542:	81 f9       	bld	r24, 1
 544:	89 8b       	std	Y+17, r24	; 0x11
 546:	64 2f       	mov	r22, r20
 548:	ce 01       	movw	r24, r28
 54a:	9d df       	rcall	.-198    	; 0x486 <_ZN13NewSoftSerial5setTXEh>
 54c:	61 2f       	mov	r22, r17
 54e:	ce 01       	movw	r24, r28
 550:	df 91       	pop	r29
 552:	cf 91       	pop	r28
 554:	1f 91       	pop	r17
 556:	ba cf       	rjmp	.-140    	; 0x4cc <_ZN13NewSoftSerial5setRXEh>

00000558 <_ZN11EEPROMClass4readEi>:
 558:	cb 01       	movw	r24, r22
 55a:	c3 c3       	rjmp	.+1926   	; 0xce2 <eeprom_read_byte>

0000055c <_ZN11EEPROMClass5writeEih>:
 55c:	cb 01       	movw	r24, r22
 55e:	64 2f       	mov	r22, r20
 560:	c8 c3       	rjmp	.+1936   	; 0xcf2 <eeprom_write_byte>

00000562 <_ZN14HardwareSerial9availableEv>:
 562:	fc 01       	movw	r30, r24
 564:	22 81       	ldd	r18, Z+2	; 0x02
 566:	33 81       	ldd	r19, Z+3	; 0x03
 568:	f9 01       	movw	r30, r18
 56a:	e0 58       	subi	r30, 0x80	; 128
 56c:	ff 4f       	sbci	r31, 0xFF	; 255
 56e:	80 81       	ld	r24, Z
 570:	91 81       	ldd	r25, Z+1	; 0x01
 572:	2e 57       	subi	r18, 0x7E	; 126
 574:	3f 4f       	sbci	r19, 0xFF	; 255
 576:	f9 01       	movw	r30, r18
 578:	20 81       	ld	r18, Z
 57a:	31 81       	ldd	r19, Z+1	; 0x01
 57c:	82 1b       	sub	r24, r18
 57e:	93 0b       	sbc	r25, r19
 580:	8f 77       	andi	r24, 0x7F	; 127
 582:	99 27       	eor	r25, r25
 584:	08 95       	ret

00000586 <_ZN14HardwareSerial4peekEv>:
 586:	fc 01       	movw	r30, r24
 588:	82 81       	ldd	r24, Z+2	; 0x02
 58a:	93 81       	ldd	r25, Z+3	; 0x03
 58c:	fc 01       	movw	r30, r24
 58e:	ee 57       	subi	r30, 0x7E	; 126
 590:	ff 4f       	sbci	r31, 0xFF	; 255
 592:	20 81       	ld	r18, Z
 594:	31 81       	ldd	r19, Z+1	; 0x01
 596:	32 97       	sbiw	r30, 0x02	; 2
 598:	40 81       	ld	r20, Z
 59a:	51 81       	ldd	r21, Z+1	; 0x01
 59c:	42 17       	cp	r20, r18
 59e:	53 07       	cpc	r21, r19
 5a0:	31 f0       	breq	.+12     	; 0x5ae <_ZN14HardwareSerial4peekEv+0x28>
 5a2:	82 0f       	add	r24, r18
 5a4:	93 1f       	adc	r25, r19
 5a6:	fc 01       	movw	r30, r24
 5a8:	80 81       	ld	r24, Z
 5aa:	90 e0       	ldi	r25, 0x00	; 0
 5ac:	08 95       	ret
 5ae:	8f ef       	ldi	r24, 0xFF	; 255
 5b0:	9f ef       	ldi	r25, 0xFF	; 255
 5b2:	08 95       	ret

000005b4 <_ZN14HardwareSerial4readEv>:
 5b4:	dc 01       	movw	r26, r24
 5b6:	12 96       	adiw	r26, 0x02	; 2
 5b8:	8d 91       	ld	r24, X+
 5ba:	9c 91       	ld	r25, X
 5bc:	fc 01       	movw	r30, r24
 5be:	ee 57       	subi	r30, 0x7E	; 126
 5c0:	ff 4f       	sbci	r31, 0xFF	; 255
 5c2:	20 81       	ld	r18, Z
 5c4:	31 81       	ldd	r19, Z+1	; 0x01
 5c6:	dc 01       	movw	r26, r24
 5c8:	a0 58       	subi	r26, 0x80	; 128
 5ca:	bf 4f       	sbci	r27, 0xFF	; 255
 5cc:	4d 91       	ld	r20, X+
 5ce:	5c 91       	ld	r21, X
 5d0:	42 17       	cp	r20, r18
 5d2:	53 07       	cpc	r21, r19
 5d4:	61 f0       	breq	.+24     	; 0x5ee <_ZN14HardwareSerial4readEv+0x3a>
 5d6:	82 0f       	add	r24, r18
 5d8:	93 1f       	adc	r25, r19
 5da:	dc 01       	movw	r26, r24
 5dc:	8c 91       	ld	r24, X
 5de:	2f 5f       	subi	r18, 0xFF	; 255
 5e0:	3f 4f       	sbci	r19, 0xFF	; 255
 5e2:	2f 77       	andi	r18, 0x7F	; 127
 5e4:	33 27       	eor	r19, r19
 5e6:	31 83       	std	Z+1, r19	; 0x01
 5e8:	20 83       	st	Z, r18
 5ea:	90 e0       	ldi	r25, 0x00	; 0
 5ec:	08 95       	ret
 5ee:	8f ef       	ldi	r24, 0xFF	; 255
 5f0:	9f ef       	ldi	r25, 0xFF	; 255
 5f2:	08 95       	ret

000005f4 <_ZN14HardwareSerial5flushEv>:
 5f4:	dc 01       	movw	r26, r24
 5f6:	12 96       	adiw	r26, 0x02	; 2
 5f8:	8d 91       	ld	r24, X+
 5fa:	9c 91       	ld	r25, X
 5fc:	fc 01       	movw	r30, r24
 5fe:	e0 58       	subi	r30, 0x80	; 128
 600:	ff 4f       	sbci	r31, 0xFF	; 255
 602:	8e 57       	subi	r24, 0x7E	; 126
 604:	9f 4f       	sbci	r25, 0xFF	; 255
 606:	dc 01       	movw	r26, r24
 608:	8d 91       	ld	r24, X+
 60a:	9c 91       	ld	r25, X
 60c:	91 83       	std	Z+1, r25	; 0x01
 60e:	80 83       	st	Z, r24
 610:	08 95       	ret

00000612 <_ZN14HardwareSerial5writeEh>:
 612:	fc 01       	movw	r30, r24
 614:	a0 85       	ldd	r26, Z+8	; 0x08
 616:	b1 85       	ldd	r27, Z+9	; 0x09
 618:	21 89       	ldd	r18, Z+17	; 0x11
 61a:	81 e0       	ldi	r24, 0x01	; 1
 61c:	90 e0       	ldi	r25, 0x00	; 0
 61e:	02 c0       	rjmp	.+4      	; 0x624 <_ZN14HardwareSerial5writeEh+0x12>
 620:	88 0f       	add	r24, r24
 622:	99 1f       	adc	r25, r25
 624:	2a 95       	dec	r18
 626:	e2 f7       	brpl	.-8      	; 0x620 <_ZN14HardwareSerial5writeEh+0xe>
 628:	2c 91       	ld	r18, X
 62a:	30 e0       	ldi	r19, 0x00	; 0
 62c:	28 23       	and	r18, r24
 62e:	39 23       	and	r19, r25
 630:	23 2b       	or	r18, r19
 632:	d1 f3       	breq	.-12     	; 0x628 <_ZN14HardwareSerial5writeEh+0x16>
 634:	04 84       	ldd	r0, Z+12	; 0x0c
 636:	f5 85       	ldd	r31, Z+13	; 0x0d
 638:	e0 2d       	mov	r30, r0
 63a:	60 83       	st	Z, r22
 63c:	08 95       	ret

0000063e <__vector_18>:
 63e:	1f 92       	push	r1
 640:	0f 92       	push	r0
 642:	0f b6       	in	r0, 0x3f	; 63
 644:	0f 92       	push	r0
 646:	11 24       	eor	r1, r1
 648:	2f 93       	push	r18
 64a:	3f 93       	push	r19
 64c:	4f 93       	push	r20
 64e:	6f 93       	push	r22
 650:	7f 93       	push	r23
 652:	8f 93       	push	r24
 654:	9f 93       	push	r25
 656:	ef 93       	push	r30
 658:	ff 93       	push	r31
 65a:	40 91 c6 00 	lds	r20, 0x00C6	; 0x8000c6 <__TEXT_REGION_LENGTH__+0x7f80c6>
 65e:	20 91 0d 02 	lds	r18, 0x020D	; 0x80020d <rx_buffer+0x80>
 662:	30 91 0e 02 	lds	r19, 0x020E	; 0x80020e <rx_buffer+0x81>
 666:	c9 01       	movw	r24, r18
 668:	01 96       	adiw	r24, 0x01	; 1
 66a:	8f 77       	andi	r24, 0x7F	; 127
 66c:	99 27       	eor	r25, r25
 66e:	60 91 0f 02 	lds	r22, 0x020F	; 0x80020f <rx_buffer+0x82>
 672:	70 91 10 02 	lds	r23, 0x0210	; 0x800210 <rx_buffer+0x83>
 676:	86 17       	cp	r24, r22
 678:	97 07       	cpc	r25, r23
 67a:	41 f0       	breq	.+16     	; 0x68c <__vector_18+0x4e>
 67c:	23 57       	subi	r18, 0x73	; 115
 67e:	3e 4f       	sbci	r19, 0xFE	; 254
 680:	f9 01       	movw	r30, r18
 682:	40 83       	st	Z, r20
 684:	90 93 0e 02 	sts	0x020E, r25	; 0x80020e <rx_buffer+0x81>
 688:	80 93 0d 02 	sts	0x020D, r24	; 0x80020d <rx_buffer+0x80>
 68c:	ff 91       	pop	r31
 68e:	ef 91       	pop	r30
 690:	9f 91       	pop	r25
 692:	8f 91       	pop	r24
 694:	7f 91       	pop	r23
 696:	6f 91       	pop	r22
 698:	4f 91       	pop	r20
 69a:	3f 91       	pop	r19
 69c:	2f 91       	pop	r18
 69e:	0f 90       	pop	r0
 6a0:	0f be       	out	0x3f, r0	; 63
 6a2:	0f 90       	pop	r0
 6a4:	1f 90       	pop	r1
 6a6:	18 95       	reti

000006a8 <_ZN14HardwareSerial5beginEl>:
 6a8:	cf 93       	push	r28
 6aa:	df 93       	push	r29
 6ac:	ec 01       	movw	r28, r24
 6ae:	9a 01       	movw	r18, r20
 6b0:	ab 01       	movw	r20, r22
 6b2:	e8 85       	ldd	r30, Y+8	; 0x08
 6b4:	f9 85       	ldd	r31, Y+9	; 0x09
 6b6:	21 15       	cp	r18, r1
 6b8:	81 ee       	ldi	r24, 0xE1	; 225
 6ba:	38 07       	cpc	r19, r24
 6bc:	41 05       	cpc	r20, r1
 6be:	51 05       	cpc	r21, r1
 6c0:	09 f4       	brne	.+2      	; 0x6c4 <_ZN14HardwareSerial5beginEl+0x1c>
 6c2:	43 c0       	rjmp	.+134    	; 0x74a <_ZN14HardwareSerial5beginEl+0xa2>
 6c4:	6a 89       	ldd	r22, Y+18	; 0x12
 6c6:	81 e0       	ldi	r24, 0x01	; 1
 6c8:	90 e0       	ldi	r25, 0x00	; 0
 6ca:	01 c0       	rjmp	.+2      	; 0x6ce <_ZN14HardwareSerial5beginEl+0x26>
 6cc:	88 0f       	add	r24, r24
 6ce:	6a 95       	dec	r22
 6d0:	ea f7       	brpl	.-6      	; 0x6cc <_ZN14HardwareSerial5beginEl+0x24>
 6d2:	80 83       	st	Z, r24
 6d4:	60 e0       	ldi	r22, 0x00	; 0
 6d6:	79 e0       	ldi	r23, 0x09	; 9
 6d8:	8d e3       	ldi	r24, 0x3D	; 61
 6da:	90 e0       	ldi	r25, 0x00	; 0
 6dc:	da d2       	rcall	.+1460   	; 0xc92 <__udivmodsi4>
 6de:	ba 01       	movw	r22, r20
 6e0:	a9 01       	movw	r20, r18
 6e2:	41 50       	subi	r20, 0x01	; 1
 6e4:	51 09       	sbc	r21, r1
 6e6:	61 09       	sbc	r22, r1
 6e8:	71 09       	sbc	r23, r1
 6ea:	76 95       	lsr	r23
 6ec:	67 95       	ror	r22
 6ee:	57 95       	ror	r21
 6f0:	47 95       	ror	r20
 6f2:	ca 01       	movw	r24, r20
 6f4:	ec 81       	ldd	r30, Y+4	; 0x04
 6f6:	fd 81       	ldd	r31, Y+5	; 0x05
 6f8:	90 83       	st	Z, r25
 6fa:	ee 81       	ldd	r30, Y+6	; 0x06
 6fc:	ff 81       	ldd	r31, Y+7	; 0x07
 6fe:	80 83       	st	Z, r24
 700:	ea 85       	ldd	r30, Y+10	; 0x0a
 702:	fb 85       	ldd	r31, Y+11	; 0x0b
 704:	20 81       	ld	r18, Z
 706:	3e 85       	ldd	r19, Y+14	; 0x0e
 708:	81 e0       	ldi	r24, 0x01	; 1
 70a:	90 e0       	ldi	r25, 0x00	; 0
 70c:	ac 01       	movw	r20, r24
 70e:	01 c0       	rjmp	.+2      	; 0x712 <_ZN14HardwareSerial5beginEl+0x6a>
 710:	44 0f       	add	r20, r20
 712:	3a 95       	dec	r19
 714:	ea f7       	brpl	.-6      	; 0x710 <_ZN14HardwareSerial5beginEl+0x68>
 716:	24 2b       	or	r18, r20
 718:	20 83       	st	Z, r18
 71a:	ea 85       	ldd	r30, Y+10	; 0x0a
 71c:	fb 85       	ldd	r31, Y+11	; 0x0b
 71e:	20 81       	ld	r18, Z
 720:	3f 85       	ldd	r19, Y+15	; 0x0f
 722:	ac 01       	movw	r20, r24
 724:	01 c0       	rjmp	.+2      	; 0x728 <_ZN14HardwareSerial5beginEl+0x80>
 726:	44 0f       	add	r20, r20
 728:	3a 95       	dec	r19
 72a:	ea f7       	brpl	.-6      	; 0x726 <_ZN14HardwareSerial5beginEl+0x7e>
 72c:	24 2b       	or	r18, r20
 72e:	20 83       	st	Z, r18
 730:	ea 85       	ldd	r30, Y+10	; 0x0a
 732:	fb 85       	ldd	r31, Y+11	; 0x0b
 734:	20 81       	ld	r18, Z
 736:	38 89       	ldd	r19, Y+16	; 0x10
 738:	01 c0       	rjmp	.+2      	; 0x73c <_ZN14HardwareSerial5beginEl+0x94>
 73a:	88 0f       	add	r24, r24
 73c:	3a 95       	dec	r19
 73e:	ea f7       	brpl	.-6      	; 0x73a <_ZN14HardwareSerial5beginEl+0x92>
 740:	82 2b       	or	r24, r18
 742:	80 83       	st	Z, r24
 744:	df 91       	pop	r29
 746:	cf 91       	pop	r28
 748:	08 95       	ret
 74a:	10 82       	st	Z, r1
 74c:	80 e1       	ldi	r24, 0x10	; 16
 74e:	90 e0       	ldi	r25, 0x00	; 0
 750:	d1 cf       	rjmp	.-94     	; 0x6f4 <_ZN14HardwareSerial5beginEl+0x4c>

00000752 <_GLOBAL__sub_I_rx_buffer>:
 752:	ea e7       	ldi	r30, 0x7A	; 122
 754:	f1 e0       	ldi	r31, 0x01	; 1
 756:	82 e1       	ldi	r24, 0x12	; 18
 758:	91 e0       	ldi	r25, 0x01	; 1
 75a:	91 83       	std	Z+1, r25	; 0x01
 75c:	80 83       	st	Z, r24
 75e:	8d e8       	ldi	r24, 0x8D	; 141
 760:	91 e0       	ldi	r25, 0x01	; 1
 762:	93 83       	std	Z+3, r25	; 0x03
 764:	82 83       	std	Z+2, r24	; 0x02
 766:	85 ec       	ldi	r24, 0xC5	; 197
 768:	90 e0       	ldi	r25, 0x00	; 0
 76a:	95 83       	std	Z+5, r25	; 0x05
 76c:	84 83       	std	Z+4, r24	; 0x04
 76e:	84 ec       	ldi	r24, 0xC4	; 196
 770:	90 e0       	ldi	r25, 0x00	; 0
 772:	97 83       	std	Z+7, r25	; 0x07
 774:	86 83       	std	Z+6, r24	; 0x06
 776:	80 ec       	ldi	r24, 0xC0	; 192
 778:	90 e0       	ldi	r25, 0x00	; 0
 77a:	91 87       	std	Z+9, r25	; 0x09
 77c:	80 87       	std	Z+8, r24	; 0x08
 77e:	81 ec       	ldi	r24, 0xC1	; 193
 780:	90 e0       	ldi	r25, 0x00	; 0
 782:	93 87       	std	Z+11, r25	; 0x0b
 784:	82 87       	std	Z+10, r24	; 0x0a
 786:	86 ec       	ldi	r24, 0xC6	; 198
 788:	90 e0       	ldi	r25, 0x00	; 0
 78a:	95 87       	std	Z+13, r25	; 0x0d
 78c:	84 87       	std	Z+12, r24	; 0x0c
 78e:	84 e0       	ldi	r24, 0x04	; 4
 790:	86 87       	std	Z+14, r24	; 0x0e
 792:	83 e0       	ldi	r24, 0x03	; 3
 794:	87 87       	std	Z+15, r24	; 0x0f
 796:	87 e0       	ldi	r24, 0x07	; 7
 798:	80 8b       	std	Z+16, r24	; 0x10
 79a:	85 e0       	ldi	r24, 0x05	; 5
 79c:	81 8b       	std	Z+17, r24	; 0x11
 79e:	81 e0       	ldi	r24, 0x01	; 1
 7a0:	82 8b       	std	Z+18, r24	; 0x12
 7a2:	08 95       	ret

000007a4 <_ZN5Print5writeEPKc>:
 7a4:	0f 93       	push	r16
 7a6:	1f 93       	push	r17
 7a8:	cf 93       	push	r28
 7aa:	df 93       	push	r29
 7ac:	ec 01       	movw	r28, r24
 7ae:	8b 01       	movw	r16, r22
 7b0:	f8 01       	movw	r30, r16
 7b2:	61 91       	ld	r22, Z+
 7b4:	8f 01       	movw	r16, r30
 7b6:	66 23       	and	r22, r22
 7b8:	41 f0       	breq	.+16     	; 0x7ca <_ZN5Print5writeEPKc+0x26>
 7ba:	e8 81       	ld	r30, Y
 7bc:	f9 81       	ldd	r31, Y+1	; 0x01
 7be:	01 90       	ld	r0, Z+
 7c0:	f0 81       	ld	r31, Z
 7c2:	e0 2d       	mov	r30, r0
 7c4:	ce 01       	movw	r24, r28
 7c6:	09 95       	icall
 7c8:	f3 cf       	rjmp	.-26     	; 0x7b0 <_ZN5Print5writeEPKc+0xc>
 7ca:	df 91       	pop	r29
 7cc:	cf 91       	pop	r28
 7ce:	1f 91       	pop	r17
 7d0:	0f 91       	pop	r16
 7d2:	08 95       	ret

000007d4 <_ZN5Print5writeEPKhj>:
 7d4:	ef 92       	push	r14
 7d6:	ff 92       	push	r15
 7d8:	0f 93       	push	r16
 7da:	1f 93       	push	r17
 7dc:	cf 93       	push	r28
 7de:	df 93       	push	r29
 7e0:	7c 01       	movw	r14, r24
 7e2:	eb 01       	movw	r28, r22
 7e4:	8b 01       	movw	r16, r22
 7e6:	04 0f       	add	r16, r20
 7e8:	15 1f       	adc	r17, r21
 7ea:	c0 17       	cp	r28, r16
 7ec:	d1 07       	cpc	r29, r17
 7ee:	51 f0       	breq	.+20     	; 0x804 <__DATA_REGION_LENGTH__+0x4>
 7f0:	69 91       	ld	r22, Y+
 7f2:	d7 01       	movw	r26, r14
 7f4:	ed 91       	ld	r30, X+
 7f6:	fc 91       	ld	r31, X
 7f8:	01 90       	ld	r0, Z+
 7fa:	f0 81       	ld	r31, Z
 7fc:	e0 2d       	mov	r30, r0
 7fe:	c7 01       	movw	r24, r14
 800:	09 95       	icall
 802:	f3 cf       	rjmp	.-26     	; 0x7ea <_ZN5Print5writeEPKhj+0x16>
 804:	df 91       	pop	r29
 806:	cf 91       	pop	r28
 808:	1f 91       	pop	r17
 80a:	0f 91       	pop	r16
 80c:	ff 90       	pop	r15
 80e:	ef 90       	pop	r14
 810:	08 95       	ret

00000812 <_ZN5Print5printEPKc>:
 812:	dc 01       	movw	r26, r24
 814:	ed 91       	ld	r30, X+
 816:	fc 91       	ld	r31, X
 818:	02 80       	ldd	r0, Z+2	; 0x02
 81a:	f3 81       	ldd	r31, Z+3	; 0x03
 81c:	e0 2d       	mov	r30, r0
 81e:	09 94       	ijmp

00000820 <_ZN5Print11printNumberEmh>:
 820:	2f 92       	push	r2
 822:	3f 92       	push	r3
 824:	4f 92       	push	r4
 826:	5f 92       	push	r5
 828:	6f 92       	push	r6
 82a:	7f 92       	push	r7
 82c:	8f 92       	push	r8
 82e:	9f 92       	push	r9
 830:	af 92       	push	r10
 832:	bf 92       	push	r11
 834:	cf 92       	push	r12
 836:	df 92       	push	r13
 838:	ef 92       	push	r14
 83a:	ff 92       	push	r15
 83c:	0f 93       	push	r16
 83e:	1f 93       	push	r17
 840:	cf 93       	push	r28
 842:	df 93       	push	r29
 844:	cd b7       	in	r28, 0x3d	; 61
 846:	de b7       	in	r29, 0x3e	; 62
 848:	a0 97       	sbiw	r28, 0x20	; 32
 84a:	0f b6       	in	r0, 0x3f	; 63
 84c:	f8 94       	cli
 84e:	de bf       	out	0x3e, r29	; 62
 850:	0f be       	out	0x3f, r0	; 63
 852:	cd bf       	out	0x3d, r28	; 61
 854:	6c 01       	movw	r12, r24
 856:	41 15       	cp	r20, r1
 858:	51 05       	cpc	r21, r1
 85a:	61 05       	cpc	r22, r1
 85c:	71 05       	cpc	r23, r1
 85e:	e1 f4       	brne	.+56     	; 0x898 <_ZN5Print11printNumberEmh+0x78>
 860:	50 e0       	ldi	r21, 0x00	; 0
 862:	40 e0       	ldi	r20, 0x00	; 0
 864:	60 e3       	ldi	r22, 0x30	; 48
 866:	a0 96       	adiw	r28, 0x20	; 32
 868:	0f b6       	in	r0, 0x3f	; 63
 86a:	f8 94       	cli
 86c:	de bf       	out	0x3e, r29	; 62
 86e:	0f be       	out	0x3f, r0	; 63
 870:	cd bf       	out	0x3d, r28	; 61
 872:	df 91       	pop	r29
 874:	cf 91       	pop	r28
 876:	1f 91       	pop	r17
 878:	0f 91       	pop	r16
 87a:	ff 90       	pop	r15
 87c:	ef 90       	pop	r14
 87e:	df 90       	pop	r13
 880:	cf 90       	pop	r12
 882:	bf 90       	pop	r11
 884:	af 90       	pop	r10
 886:	9f 90       	pop	r9
 888:	8f 90       	pop	r8
 88a:	7f 90       	pop	r7
 88c:	6f 90       	pop	r6
 88e:	5f 90       	pop	r5
 890:	4f 90       	pop	r4
 892:	3f 90       	pop	r3
 894:	2f 90       	pop	r2
 896:	8a c0       	rjmp	.+276    	; 0x9ac <_ZN5Print5printEci>
 898:	8e 01       	movw	r16, r28
 89a:	0f 5f       	subi	r16, 0xFF	; 255
 89c:	1f 4f       	sbci	r17, 0xFF	; 255
 89e:	41 2c       	mov	r4, r1
 8a0:	51 2c       	mov	r5, r1
 8a2:	32 01       	movw	r6, r4
 8a4:	18 01       	movw	r2, r16
 8a6:	82 2e       	mov	r8, r18
 8a8:	91 2c       	mov	r9, r1
 8aa:	b1 2c       	mov	r11, r1
 8ac:	a1 2c       	mov	r10, r1
 8ae:	cb 01       	movw	r24, r22
 8b0:	ba 01       	movw	r22, r20
 8b2:	a5 01       	movw	r20, r10
 8b4:	94 01       	movw	r18, r8
 8b6:	ed d1       	rcall	.+986    	; 0xc92 <__udivmodsi4>
 8b8:	f4 2e       	mov	r15, r20
 8ba:	e5 2e       	mov	r14, r21
 8bc:	d3 01       	movw	r26, r6
 8be:	c2 01       	movw	r24, r4
 8c0:	01 96       	adiw	r24, 0x01	; 1
 8c2:	a1 1d       	adc	r26, r1
 8c4:	b1 1d       	adc	r27, r1
 8c6:	f8 01       	movw	r30, r16
 8c8:	61 93       	st	Z+, r22
 8ca:	8f 01       	movw	r16, r30
 8cc:	a9 01       	movw	r20, r18
 8ce:	6f 2d       	mov	r22, r15
 8d0:	7e 2d       	mov	r23, r14
 8d2:	41 15       	cp	r20, r1
 8d4:	51 05       	cpc	r21, r1
 8d6:	61 05       	cpc	r22, r1
 8d8:	71 05       	cpc	r23, r1
 8da:	71 f5       	brne	.+92     	; 0x938 <__stack+0x39>
 8dc:	7c 01       	movw	r14, r24
 8de:	10 e0       	ldi	r17, 0x00	; 0
 8e0:	00 e0       	ldi	r16, 0x00	; 0
 8e2:	f2 01       	movw	r30, r4
 8e4:	e0 1b       	sub	r30, r16
 8e6:	f1 0b       	sbc	r31, r17
 8e8:	e2 0d       	add	r30, r2
 8ea:	f3 1d       	adc	r31, r3
 8ec:	60 81       	ld	r22, Z
 8ee:	6a 30       	cpi	r22, 0x0A	; 10
 8f0:	30 f5       	brcc	.+76     	; 0x93e <__stack+0x3f>
 8f2:	60 5d       	subi	r22, 0xD0	; 208
 8f4:	50 e0       	ldi	r21, 0x00	; 0
 8f6:	40 e0       	ldi	r20, 0x00	; 0
 8f8:	c6 01       	movw	r24, r12
 8fa:	58 d0       	rcall	.+176    	; 0x9ac <_ZN5Print5printEci>
 8fc:	0f 5f       	subi	r16, 0xFF	; 255
 8fe:	1f 4f       	sbci	r17, 0xFF	; 255
 900:	e0 16       	cp	r14, r16
 902:	f1 06       	cpc	r15, r17
 904:	71 f7       	brne	.-36     	; 0x8e2 <_ZN5Print11printNumberEmh+0xc2>
 906:	a0 96       	adiw	r28, 0x20	; 32
 908:	0f b6       	in	r0, 0x3f	; 63
 90a:	f8 94       	cli
 90c:	de bf       	out	0x3e, r29	; 62
 90e:	0f be       	out	0x3f, r0	; 63
 910:	cd bf       	out	0x3d, r28	; 61
 912:	df 91       	pop	r29
 914:	cf 91       	pop	r28
 916:	1f 91       	pop	r17
 918:	0f 91       	pop	r16
 91a:	ff 90       	pop	r15
 91c:	ef 90       	pop	r14
 91e:	df 90       	pop	r13
 920:	cf 90       	pop	r12
 922:	bf 90       	pop	r11
 924:	af 90       	pop	r10
 926:	9f 90       	pop	r9
 928:	8f 90       	pop	r8
 92a:	7f 90       	pop	r7
 92c:	6f 90       	pop	r6
 92e:	5f 90       	pop	r5
 930:	4f 90       	pop	r4
 932:	3f 90       	pop	r3
 934:	2f 90       	pop	r2
 936:	08 95       	ret
 938:	2c 01       	movw	r4, r24
 93a:	3d 01       	movw	r6, r26
 93c:	b8 cf       	rjmp	.-144    	; 0x8ae <_ZN5Print11printNumberEmh+0x8e>
 93e:	69 5c       	subi	r22, 0xC9	; 201
 940:	d9 cf       	rjmp	.-78     	; 0x8f4 <_ZN5Print11printNumberEmh+0xd4>

00000942 <_ZN5Print5printEli>:
 942:	cf 92       	push	r12
 944:	df 92       	push	r13
 946:	ef 92       	push	r14
 948:	ff 92       	push	r15
 94a:	cf 93       	push	r28
 94c:	df 93       	push	r29
 94e:	ec 01       	movw	r28, r24
 950:	6a 01       	movw	r12, r20
 952:	7b 01       	movw	r14, r22
 954:	21 15       	cp	r18, r1
 956:	31 05       	cpc	r19, r1
 958:	69 f4       	brne	.+26     	; 0x974 <_ZN5Print5printEli+0x32>
 95a:	e8 81       	ld	r30, Y
 95c:	f9 81       	ldd	r31, Y+1	; 0x01
 95e:	01 90       	ld	r0, Z+
 960:	f0 81       	ld	r31, Z
 962:	e0 2d       	mov	r30, r0
 964:	64 2f       	mov	r22, r20
 966:	df 91       	pop	r29
 968:	cf 91       	pop	r28
 96a:	ff 90       	pop	r15
 96c:	ef 90       	pop	r14
 96e:	df 90       	pop	r13
 970:	cf 90       	pop	r12
 972:	09 94       	ijmp
 974:	2a 30       	cpi	r18, 0x0A	; 10
 976:	31 05       	cpc	r19, r1
 978:	79 f4       	brne	.+30     	; 0x998 <_ZN5Print5printEli+0x56>
 97a:	f7 fe       	sbrs	r15, 7
 97c:	0c c0       	rjmp	.+24     	; 0x996 <_ZN5Print5printEli+0x54>
 97e:	50 e0       	ldi	r21, 0x00	; 0
 980:	40 e0       	ldi	r20, 0x00	; 0
 982:	6d e2       	ldi	r22, 0x2D	; 45
 984:	13 d0       	rcall	.+38     	; 0x9ac <_ZN5Print5printEci>
 986:	f0 94       	com	r15
 988:	e0 94       	com	r14
 98a:	d0 94       	com	r13
 98c:	c0 94       	com	r12
 98e:	c1 1c       	adc	r12, r1
 990:	d1 1c       	adc	r13, r1
 992:	e1 1c       	adc	r14, r1
 994:	f1 1c       	adc	r15, r1
 996:	2a e0       	ldi	r18, 0x0A	; 10
 998:	b7 01       	movw	r22, r14
 99a:	a6 01       	movw	r20, r12
 99c:	ce 01       	movw	r24, r28
 99e:	df 91       	pop	r29
 9a0:	cf 91       	pop	r28
 9a2:	ff 90       	pop	r15
 9a4:	ef 90       	pop	r14
 9a6:	df 90       	pop	r13
 9a8:	cf 90       	pop	r12
 9aa:	3a cf       	rjmp	.-396    	; 0x820 <_ZN5Print11printNumberEmh>

000009ac <_ZN5Print5printEci>:
 9ac:	9a 01       	movw	r18, r20
 9ae:	46 2f       	mov	r20, r22
 9b0:	50 e0       	ldi	r21, 0x00	; 0
 9b2:	70 e0       	ldi	r23, 0x00	; 0
 9b4:	60 e0       	ldi	r22, 0x00	; 0
 9b6:	c5 cf       	rjmp	.-118    	; 0x942 <_ZN5Print5printEli>

000009b8 <_ZN5Print7printlnEv>:
 9b8:	cf 93       	push	r28
 9ba:	df 93       	push	r29
 9bc:	ec 01       	movw	r28, r24
 9be:	50 e0       	ldi	r21, 0x00	; 0
 9c0:	40 e0       	ldi	r20, 0x00	; 0
 9c2:	6d e0       	ldi	r22, 0x0D	; 13
 9c4:	f3 df       	rcall	.-26     	; 0x9ac <_ZN5Print5printEci>
 9c6:	50 e0       	ldi	r21, 0x00	; 0
 9c8:	40 e0       	ldi	r20, 0x00	; 0
 9ca:	6a e0       	ldi	r22, 0x0A	; 10
 9cc:	ce 01       	movw	r24, r28
 9ce:	df 91       	pop	r29
 9d0:	cf 91       	pop	r28
 9d2:	ec cf       	rjmp	.-40     	; 0x9ac <_ZN5Print5printEci>

000009d4 <_ZN5Print5printEii>:
 9d4:	9a 01       	movw	r18, r20
 9d6:	ab 01       	movw	r20, r22
 9d8:	77 0f       	add	r23, r23
 9da:	66 0b       	sbc	r22, r22
 9dc:	77 0b       	sbc	r23, r23
 9de:	b1 cf       	rjmp	.-158    	; 0x942 <_ZN5Print5printEli>

000009e0 <_ZN5Print5printEmi>:
 9e0:	21 15       	cp	r18, r1
 9e2:	31 05       	cpc	r19, r1
 9e4:	41 f4       	brne	.+16     	; 0x9f6 <_ZN5Print5printEmi+0x16>
 9e6:	dc 01       	movw	r26, r24
 9e8:	ed 91       	ld	r30, X+
 9ea:	fc 91       	ld	r31, X
 9ec:	01 90       	ld	r0, Z+
 9ee:	f0 81       	ld	r31, Z
 9f0:	e0 2d       	mov	r30, r0
 9f2:	64 2f       	mov	r22, r20
 9f4:	09 94       	ijmp
 9f6:	14 cf       	rjmp	.-472    	; 0x820 <_ZN5Print11printNumberEmh>

000009f8 <_ZN5Print5printEhi>:
 9f8:	9a 01       	movw	r18, r20
 9fa:	46 2f       	mov	r20, r22
 9fc:	50 e0       	ldi	r21, 0x00	; 0
 9fe:	70 e0       	ldi	r23, 0x00	; 0
 a00:	60 e0       	ldi	r22, 0x00	; 0
 a02:	ee cf       	rjmp	.-36     	; 0x9e0 <_ZN5Print5printEmi>

00000a04 <__vector_16>:
 a04:	1f 92       	push	r1
 a06:	0f 92       	push	r0
 a08:	0f b6       	in	r0, 0x3f	; 63
 a0a:	0f 92       	push	r0
 a0c:	11 24       	eor	r1, r1
 a0e:	2f 93       	push	r18
 a10:	3f 93       	push	r19
 a12:	8f 93       	push	r24
 a14:	9f 93       	push	r25
 a16:	af 93       	push	r26
 a18:	bf 93       	push	r27
 a1a:	80 91 12 02 	lds	r24, 0x0212	; 0x800212 <timer0_millis>
 a1e:	90 91 13 02 	lds	r25, 0x0213	; 0x800213 <timer0_millis+0x1>
 a22:	a0 91 14 02 	lds	r26, 0x0214	; 0x800214 <timer0_millis+0x2>
 a26:	b0 91 15 02 	lds	r27, 0x0215	; 0x800215 <timer0_millis+0x3>
 a2a:	30 91 11 02 	lds	r19, 0x0211	; 0x800211 <timer0_fract>
 a2e:	23 e0       	ldi	r18, 0x03	; 3
 a30:	23 0f       	add	r18, r19
 a32:	2d 37       	cpi	r18, 0x7D	; 125
 a34:	58 f5       	brcc	.+86     	; 0xa8c <__vector_16+0x88>
 a36:	01 96       	adiw	r24, 0x01	; 1
 a38:	a1 1d       	adc	r26, r1
 a3a:	b1 1d       	adc	r27, r1
 a3c:	20 93 11 02 	sts	0x0211, r18	; 0x800211 <timer0_fract>
 a40:	80 93 12 02 	sts	0x0212, r24	; 0x800212 <timer0_millis>
 a44:	90 93 13 02 	sts	0x0213, r25	; 0x800213 <timer0_millis+0x1>
 a48:	a0 93 14 02 	sts	0x0214, r26	; 0x800214 <timer0_millis+0x2>
 a4c:	b0 93 15 02 	sts	0x0215, r27	; 0x800215 <timer0_millis+0x3>
 a50:	80 91 16 02 	lds	r24, 0x0216	; 0x800216 <timer0_overflow_count>
 a54:	90 91 17 02 	lds	r25, 0x0217	; 0x800217 <timer0_overflow_count+0x1>
 a58:	a0 91 18 02 	lds	r26, 0x0218	; 0x800218 <timer0_overflow_count+0x2>
 a5c:	b0 91 19 02 	lds	r27, 0x0219	; 0x800219 <timer0_overflow_count+0x3>
 a60:	01 96       	adiw	r24, 0x01	; 1
 a62:	a1 1d       	adc	r26, r1
 a64:	b1 1d       	adc	r27, r1
 a66:	80 93 16 02 	sts	0x0216, r24	; 0x800216 <timer0_overflow_count>
 a6a:	90 93 17 02 	sts	0x0217, r25	; 0x800217 <timer0_overflow_count+0x1>
 a6e:	a0 93 18 02 	sts	0x0218, r26	; 0x800218 <timer0_overflow_count+0x2>
 a72:	b0 93 19 02 	sts	0x0219, r27	; 0x800219 <timer0_overflow_count+0x3>
 a76:	bf 91       	pop	r27
 a78:	af 91       	pop	r26
 a7a:	9f 91       	pop	r25
 a7c:	8f 91       	pop	r24
 a7e:	3f 91       	pop	r19
 a80:	2f 91       	pop	r18
 a82:	0f 90       	pop	r0
 a84:	0f be       	out	0x3f, r0	; 63
 a86:	0f 90       	pop	r0
 a88:	1f 90       	pop	r1
 a8a:	18 95       	reti
 a8c:	26 e8       	ldi	r18, 0x86	; 134
 a8e:	23 0f       	add	r18, r19
 a90:	02 96       	adiw	r24, 0x02	; 2
 a92:	a1 1d       	adc	r26, r1
 a94:	b1 1d       	adc	r27, r1
 a96:	d2 cf       	rjmp	.-92     	; 0xa3c <__vector_16+0x38>

00000a98 <micros>:
 a98:	3f b7       	in	r19, 0x3f	; 63
 a9a:	f8 94       	cli
 a9c:	80 91 16 02 	lds	r24, 0x0216	; 0x800216 <timer0_overflow_count>
 aa0:	90 91 17 02 	lds	r25, 0x0217	; 0x800217 <timer0_overflow_count+0x1>
 aa4:	a0 91 18 02 	lds	r26, 0x0218	; 0x800218 <timer0_overflow_count+0x2>
 aa8:	b0 91 19 02 	lds	r27, 0x0219	; 0x800219 <timer0_overflow_count+0x3>
 aac:	26 b5       	in	r18, 0x26	; 38
 aae:	a8 9b       	sbis	0x15, 0	; 21
 ab0:	05 c0       	rjmp	.+10     	; 0xabc <micros+0x24>
 ab2:	2f 3f       	cpi	r18, 0xFF	; 255
 ab4:	19 f0       	breq	.+6      	; 0xabc <micros+0x24>
 ab6:	01 96       	adiw	r24, 0x01	; 1
 ab8:	a1 1d       	adc	r26, r1
 aba:	b1 1d       	adc	r27, r1
 abc:	3f bf       	out	0x3f, r19	; 63
 abe:	ba 2f       	mov	r27, r26
 ac0:	a9 2f       	mov	r26, r25
 ac2:	98 2f       	mov	r25, r24
 ac4:	88 27       	eor	r24, r24
 ac6:	bc 01       	movw	r22, r24
 ac8:	cd 01       	movw	r24, r26
 aca:	62 0f       	add	r22, r18
 acc:	71 1d       	adc	r23, r1
 ace:	81 1d       	adc	r24, r1
 ad0:	91 1d       	adc	r25, r1
 ad2:	42 e0       	ldi	r20, 0x02	; 2
 ad4:	66 0f       	add	r22, r22
 ad6:	77 1f       	adc	r23, r23
 ad8:	88 1f       	adc	r24, r24
 ada:	99 1f       	adc	r25, r25
 adc:	4a 95       	dec	r20
 ade:	d1 f7       	brne	.-12     	; 0xad4 <micros+0x3c>
 ae0:	08 95       	ret

00000ae2 <delay>:
 ae2:	cf 92       	push	r12
 ae4:	df 92       	push	r13
 ae6:	ef 92       	push	r14
 ae8:	ff 92       	push	r15
 aea:	cf 93       	push	r28
 aec:	df 93       	push	r29
 aee:	6b 01       	movw	r12, r22
 af0:	7c 01       	movw	r14, r24
 af2:	d2 df       	rcall	.-92     	; 0xa98 <micros>
 af4:	eb 01       	movw	r28, r22
 af6:	c1 14       	cp	r12, r1
 af8:	d1 04       	cpc	r13, r1
 afa:	e1 04       	cpc	r14, r1
 afc:	f1 04       	cpc	r15, r1
 afe:	39 f4       	brne	.+14     	; 0xb0e <delay+0x2c>
 b00:	df 91       	pop	r29
 b02:	cf 91       	pop	r28
 b04:	ff 90       	pop	r15
 b06:	ef 90       	pop	r14
 b08:	df 90       	pop	r13
 b0a:	cf 90       	pop	r12
 b0c:	08 95       	ret
 b0e:	c4 df       	rcall	.-120    	; 0xa98 <micros>
 b10:	6c 1b       	sub	r22, r28
 b12:	7d 0b       	sbc	r23, r29
 b14:	68 3e       	cpi	r22, 0xE8	; 232
 b16:	73 40       	sbci	r23, 0x03	; 3
 b18:	70 f3       	brcs	.-36     	; 0xaf6 <delay+0x14>
 b1a:	81 e0       	ldi	r24, 0x01	; 1
 b1c:	c8 1a       	sub	r12, r24
 b1e:	d1 08       	sbc	r13, r1
 b20:	e1 08       	sbc	r14, r1
 b22:	f1 08       	sbc	r15, r1
 b24:	c8 51       	subi	r28, 0x18	; 24
 b26:	dc 4f       	sbci	r29, 0xFC	; 252
 b28:	e6 cf       	rjmp	.-52     	; 0xaf6 <delay+0x14>

00000b2a <init>:
 b2a:	78 94       	sei
 b2c:	84 b5       	in	r24, 0x24	; 36
 b2e:	82 60       	ori	r24, 0x02	; 2
 b30:	84 bd       	out	0x24, r24	; 36
 b32:	84 b5       	in	r24, 0x24	; 36
 b34:	81 60       	ori	r24, 0x01	; 1
 b36:	84 bd       	out	0x24, r24	; 36
 b38:	85 b5       	in	r24, 0x25	; 37
 b3a:	82 60       	ori	r24, 0x02	; 2
 b3c:	85 bd       	out	0x25, r24	; 37
 b3e:	85 b5       	in	r24, 0x25	; 37
 b40:	81 60       	ori	r24, 0x01	; 1
 b42:	85 bd       	out	0x25, r24	; 37
 b44:	ee e6       	ldi	r30, 0x6E	; 110
 b46:	f0 e0       	ldi	r31, 0x00	; 0
 b48:	80 81       	ld	r24, Z
 b4a:	81 60       	ori	r24, 0x01	; 1
 b4c:	80 83       	st	Z, r24
 b4e:	e1 e8       	ldi	r30, 0x81	; 129
 b50:	f0 e0       	ldi	r31, 0x00	; 0
 b52:	10 82       	st	Z, r1
 b54:	80 81       	ld	r24, Z
 b56:	82 60       	ori	r24, 0x02	; 2
 b58:	80 83       	st	Z, r24
 b5a:	80 81       	ld	r24, Z
 b5c:	81 60       	ori	r24, 0x01	; 1
 b5e:	80 83       	st	Z, r24
 b60:	e0 e8       	ldi	r30, 0x80	; 128
 b62:	f0 e0       	ldi	r31, 0x00	; 0
 b64:	80 81       	ld	r24, Z
 b66:	81 60       	ori	r24, 0x01	; 1
 b68:	80 83       	st	Z, r24
 b6a:	e1 eb       	ldi	r30, 0xB1	; 177
 b6c:	f0 e0       	ldi	r31, 0x00	; 0
 b6e:	80 81       	ld	r24, Z
 b70:	84 60       	ori	r24, 0x04	; 4
 b72:	80 83       	st	Z, r24
 b74:	e0 eb       	ldi	r30, 0xB0	; 176
 b76:	f0 e0       	ldi	r31, 0x00	; 0
 b78:	80 81       	ld	r24, Z
 b7a:	81 60       	ori	r24, 0x01	; 1
 b7c:	80 83       	st	Z, r24
 b7e:	ea e7       	ldi	r30, 0x7A	; 122
 b80:	f0 e0       	ldi	r31, 0x00	; 0
 b82:	80 81       	ld	r24, Z
 b84:	84 60       	ori	r24, 0x04	; 4
 b86:	80 83       	st	Z, r24
 b88:	80 81       	ld	r24, Z
 b8a:	82 60       	ori	r24, 0x02	; 2
 b8c:	80 83       	st	Z, r24
 b8e:	80 81       	ld	r24, Z
 b90:	81 60       	ori	r24, 0x01	; 1
 b92:	80 83       	st	Z, r24
 b94:	80 81       	ld	r24, Z
 b96:	80 68       	ori	r24, 0x80	; 128
 b98:	80 83       	st	Z, r24
 b9a:	10 92 c1 00 	sts	0x00C1, r1	; 0x8000c1 <__TEXT_REGION_LENGTH__+0x7f80c1>
 b9e:	08 95       	ret

00000ba0 <turnOffPWM>:
 ba0:	83 30       	cpi	r24, 0x03	; 3
 ba2:	81 f0       	breq	.+32     	; 0xbc4 <turnOffPWM+0x24>
 ba4:	28 f4       	brcc	.+10     	; 0xbb0 <turnOffPWM+0x10>
 ba6:	81 30       	cpi	r24, 0x01	; 1
 ba8:	99 f0       	breq	.+38     	; 0xbd0 <turnOffPWM+0x30>
 baa:	82 30       	cpi	r24, 0x02	; 2
 bac:	a9 f0       	breq	.+42     	; 0xbd8 <turnOffPWM+0x38>
 bae:	08 95       	ret
 bb0:	86 30       	cpi	r24, 0x06	; 6
 bb2:	a9 f0       	breq	.+42     	; 0xbde <turnOffPWM+0x3e>
 bb4:	87 30       	cpi	r24, 0x07	; 7
 bb6:	c9 f0       	breq	.+50     	; 0xbea <turnOffPWM+0x4a>
 bb8:	84 30       	cpi	r24, 0x04	; 4
 bba:	b1 f4       	brne	.+44     	; 0xbe8 <turnOffPWM+0x48>
 bbc:	80 91 80 00 	lds	r24, 0x0080	; 0x800080 <__TEXT_REGION_LENGTH__+0x7f8080>
 bc0:	8f 7d       	andi	r24, 0xDF	; 223
 bc2:	03 c0       	rjmp	.+6      	; 0xbca <turnOffPWM+0x2a>
 bc4:	80 91 80 00 	lds	r24, 0x0080	; 0x800080 <__TEXT_REGION_LENGTH__+0x7f8080>
 bc8:	8f 77       	andi	r24, 0x7F	; 127
 bca:	80 93 80 00 	sts	0x0080, r24	; 0x800080 <__TEXT_REGION_LENGTH__+0x7f8080>
 bce:	08 95       	ret
 bd0:	84 b5       	in	r24, 0x24	; 36
 bd2:	8f 77       	andi	r24, 0x7F	; 127
 bd4:	84 bd       	out	0x24, r24	; 36
 bd6:	08 95       	ret
 bd8:	84 b5       	in	r24, 0x24	; 36
 bda:	8f 7d       	andi	r24, 0xDF	; 223
 bdc:	fb cf       	rjmp	.-10     	; 0xbd4 <turnOffPWM+0x34>
 bde:	80 91 b0 00 	lds	r24, 0x00B0	; 0x8000b0 <__TEXT_REGION_LENGTH__+0x7f80b0>
 be2:	8f 77       	andi	r24, 0x7F	; 127
 be4:	80 93 b0 00 	sts	0x00B0, r24	; 0x8000b0 <__TEXT_REGION_LENGTH__+0x7f80b0>
 be8:	08 95       	ret
 bea:	80 91 b0 00 	lds	r24, 0x00B0	; 0x8000b0 <__TEXT_REGION_LENGTH__+0x7f80b0>
 bee:	8f 7d       	andi	r24, 0xDF	; 223
 bf0:	f9 cf       	rjmp	.-14     	; 0xbe4 <turnOffPWM+0x44>

00000bf2 <pinMode>:
 bf2:	90 e0       	ldi	r25, 0x00	; 0
 bf4:	fc 01       	movw	r30, r24
 bf6:	e4 58       	subi	r30, 0x84	; 132
 bf8:	ff 4f       	sbci	r31, 0xFF	; 255
 bfa:	24 91       	lpm	r18, Z
 bfc:	fc 01       	movw	r30, r24
 bfe:	e0 57       	subi	r30, 0x70	; 112
 c00:	ff 4f       	sbci	r31, 0xFF	; 255
 c02:	e4 91       	lpm	r30, Z
 c04:	ee 23       	and	r30, r30
 c06:	89 f0       	breq	.+34     	; 0xc2a <pinMode+0x38>
 c08:	f0 e0       	ldi	r31, 0x00	; 0
 c0a:	ee 0f       	add	r30, r30
 c0c:	ff 1f       	adc	r31, r31
 c0e:	e8 54       	subi	r30, 0x48	; 72
 c10:	ff 4f       	sbci	r31, 0xFF	; 255
 c12:	a5 91       	lpm	r26, Z+
 c14:	b4 91       	lpm	r27, Z
 c16:	8f b7       	in	r24, 0x3f	; 63
 c18:	61 11       	cpse	r22, r1
 c1a:	08 c0       	rjmp	.+16     	; 0xc2c <pinMode+0x3a>
 c1c:	f8 94       	cli
 c1e:	9c 91       	ld	r25, X
 c20:	e2 2f       	mov	r30, r18
 c22:	e0 95       	com	r30
 c24:	e9 23       	and	r30, r25
 c26:	ec 93       	st	X, r30
 c28:	8f bf       	out	0x3f, r24	; 63
 c2a:	08 95       	ret
 c2c:	f8 94       	cli
 c2e:	ec 91       	ld	r30, X
 c30:	e2 2b       	or	r30, r18
 c32:	f9 cf       	rjmp	.-14     	; 0xc26 <pinMode+0x34>

00000c34 <digitalWrite>:
 c34:	1f 93       	push	r17
 c36:	cf 93       	push	r28
 c38:	df 93       	push	r29
 c3a:	28 2f       	mov	r18, r24
 c3c:	30 e0       	ldi	r19, 0x00	; 0
 c3e:	f9 01       	movw	r30, r18
 c40:	e8 59       	subi	r30, 0x98	; 152
 c42:	ff 4f       	sbci	r31, 0xFF	; 255
 c44:	84 91       	lpm	r24, Z
 c46:	f9 01       	movw	r30, r18
 c48:	e4 58       	subi	r30, 0x84	; 132
 c4a:	ff 4f       	sbci	r31, 0xFF	; 255
 c4c:	d4 91       	lpm	r29, Z
 c4e:	f9 01       	movw	r30, r18
 c50:	e0 57       	subi	r30, 0x70	; 112
 c52:	ff 4f       	sbci	r31, 0xFF	; 255
 c54:	c4 91       	lpm	r28, Z
 c56:	cc 23       	and	r28, r28
 c58:	a1 f0       	breq	.+40     	; 0xc82 <digitalWrite+0x4e>
 c5a:	16 2f       	mov	r17, r22
 c5c:	81 11       	cpse	r24, r1
 c5e:	a0 df       	rcall	.-192    	; 0xba0 <turnOffPWM>
 c60:	ec 2f       	mov	r30, r28
 c62:	f0 e0       	ldi	r31, 0x00	; 0
 c64:	ee 0f       	add	r30, r30
 c66:	ff 1f       	adc	r31, r31
 c68:	e2 55       	subi	r30, 0x52	; 82
 c6a:	ff 4f       	sbci	r31, 0xFF	; 255
 c6c:	a5 91       	lpm	r26, Z+
 c6e:	b4 91       	lpm	r27, Z
 c70:	8f b7       	in	r24, 0x3f	; 63
 c72:	11 11       	cpse	r17, r1
 c74:	0a c0       	rjmp	.+20     	; 0xc8a <digitalWrite+0x56>
 c76:	f8 94       	cli
 c78:	ec 91       	ld	r30, X
 c7a:	d0 95       	com	r29
 c7c:	de 23       	and	r29, r30
 c7e:	dc 93       	st	X, r29
 c80:	8f bf       	out	0x3f, r24	; 63
 c82:	df 91       	pop	r29
 c84:	cf 91       	pop	r28
 c86:	1f 91       	pop	r17
 c88:	08 95       	ret
 c8a:	f8 94       	cli
 c8c:	ec 91       	ld	r30, X
 c8e:	de 2b       	or	r29, r30
 c90:	f6 cf       	rjmp	.-20     	; 0xc7e <digitalWrite+0x4a>

00000c92 <__udivmodsi4>:
 c92:	a1 e2       	ldi	r26, 0x21	; 33
 c94:	1a 2e       	mov	r1, r26
 c96:	aa 1b       	sub	r26, r26
 c98:	bb 1b       	sub	r27, r27
 c9a:	fd 01       	movw	r30, r26
 c9c:	0d c0       	rjmp	.+26     	; 0xcb8 <__udivmodsi4_ep>

00000c9e <__udivmodsi4_loop>:
 c9e:	aa 1f       	adc	r26, r26
 ca0:	bb 1f       	adc	r27, r27
 ca2:	ee 1f       	adc	r30, r30
 ca4:	ff 1f       	adc	r31, r31
 ca6:	a2 17       	cp	r26, r18
 ca8:	b3 07       	cpc	r27, r19
 caa:	e4 07       	cpc	r30, r20
 cac:	f5 07       	cpc	r31, r21
 cae:	20 f0       	brcs	.+8      	; 0xcb8 <__udivmodsi4_ep>
 cb0:	a2 1b       	sub	r26, r18
 cb2:	b3 0b       	sbc	r27, r19
 cb4:	e4 0b       	sbc	r30, r20
 cb6:	f5 0b       	sbc	r31, r21

00000cb8 <__udivmodsi4_ep>:
 cb8:	66 1f       	adc	r22, r22
 cba:	77 1f       	adc	r23, r23
 cbc:	88 1f       	adc	r24, r24
 cbe:	99 1f       	adc	r25, r25
 cc0:	1a 94       	dec	r1
 cc2:	69 f7       	brne	.-38     	; 0xc9e <__udivmodsi4_loop>
 cc4:	60 95       	com	r22
 cc6:	70 95       	com	r23
 cc8:	80 95       	com	r24
 cca:	90 95       	com	r25
 ccc:	9b 01       	movw	r18, r22
 cce:	ac 01       	movw	r20, r24
 cd0:	bd 01       	movw	r22, r26
 cd2:	cf 01       	movw	r24, r30
 cd4:	08 95       	ret

00000cd6 <__tablejump2__>:
 cd6:	ee 0f       	add	r30, r30
 cd8:	ff 1f       	adc	r31, r31
 cda:	05 90       	lpm	r0, Z+
 cdc:	f4 91       	lpm	r31, Z
 cde:	e0 2d       	mov	r30, r0
 ce0:	09 94       	ijmp

00000ce2 <eeprom_read_byte>:
 ce2:	f9 99       	sbic	0x1f, 1	; 31
 ce4:	fe cf       	rjmp	.-4      	; 0xce2 <eeprom_read_byte>
 ce6:	92 bd       	out	0x22, r25	; 34
 ce8:	81 bd       	out	0x21, r24	; 33
 cea:	f8 9a       	sbi	0x1f, 0	; 31
 cec:	99 27       	eor	r25, r25
 cee:	80 b5       	in	r24, 0x20	; 32
 cf0:	08 95       	ret

00000cf2 <eeprom_write_byte>:
 cf2:	26 2f       	mov	r18, r22

00000cf4 <eeprom_write_r18>:
 cf4:	f9 99       	sbic	0x1f, 1	; 31
 cf6:	fe cf       	rjmp	.-4      	; 0xcf4 <eeprom_write_r18>
 cf8:	1f ba       	out	0x1f, r1	; 31
 cfa:	92 bd       	out	0x22, r25	; 34
 cfc:	81 bd       	out	0x21, r24	; 33
 cfe:	20 bd       	out	0x20, r18	; 32
 d00:	0f b6       	in	r0, 0x3f	; 63
 d02:	f8 94       	cli
 d04:	fa 9a       	sbi	0x1f, 2	; 31
 d06:	f9 9a       	sbi	0x1f, 1	; 31
 d08:	0f be       	out	0x3f, r0	; 63
 d0a:	01 96       	adiw	r24, 0x01	; 1
 d0c:	08 95       	ret

00000d0e <__do_global_dtors>:
 d0e:	10 e0       	ldi	r17, 0x00	; 0
 d10:	c3 e6       	ldi	r28, 0x63	; 99
 d12:	d0 e0       	ldi	r29, 0x00	; 0
 d14:	03 c0       	rjmp	.+6      	; 0xd1c <__do_global_dtors+0xe>
 d16:	fe 01       	movw	r30, r28
 d18:	de df       	rcall	.-68     	; 0xcd6 <__tablejump2__>
 d1a:	21 96       	adiw	r28, 0x01	; 1
 d1c:	c4 36       	cpi	r28, 0x64	; 100
 d1e:	d1 07       	cpc	r29, r17
 d20:	d1 f7       	brne	.-12     	; 0xd16 <__do_global_dtors+0x8>
 d22:	f8 94       	cli

00000d24 <__stop_program>:
 d24:	ff cf       	rjmp	.-2      	; 0xd24 <__stop_program>
